target datalayout = "e-m:e-p270:32:32-p271:32:32-p272:64:64-i64:64-i128:128-f80:128-n8:16:32:64-S128"
target triple = "x86_64-pc-linux-gnu"

%struct.NameEntry = type { ptr, i64, i32, i32, i32, ptr }

; Function Attrs: nounwind sspstrong uwtable
define internal i32 @i_free_name_entry(i64 noundef %0, i64 noundef %1, i64 noundef %2) #0 {
  %4 = alloca i64, align 8
  %5 = alloca i64, align 8
  %6 = alloca i64, align 8
  %7 = alloca ptr, align 8
  %8 = alloca ptr, align 8
  store i64 %0, ptr %4, align 8, !tbaa !15
  store i64 %1, ptr %5, align 8, !tbaa !15
  store i64 %2, ptr %6, align 8, !tbaa !15
  call void @llvm.lifetime.start.p0(i64 8, ptr %7) #13
  %9 = load i64, ptr %4, align 8, !tbaa !15
  %10 = inttoptr i64 %9 to ptr
  store ptr %10, ptr %7, align 8, !tbaa !7
  call void @llvm.lifetime.start.p0(i64 8, ptr %8) #13
  %11 = load i64, ptr %5, align 8, !tbaa !15
  %12 = inttoptr i64 %11 to ptr
  store ptr %12, ptr %8, align 8, !tbaa !12
  %13 = load ptr, ptr %8, align 8, !tbaa !12
  %14 = getelementptr inbounds nuw %struct.NameEntry, ptr %13, i32 0, i32 0
  %15 = load ptr, ptr %14, align 8, !tbaa !52
  call void @free(ptr noundef %15) #13
  %16 = load ptr, ptr %8, align 8, !tbaa !12
  %17 = getelementptr inbounds nuw %struct.NameEntry, ptr %16, i32 0, i32 5
  %18 = load ptr, ptr %17, align 8, !tbaa !51
  call void @free(ptr noundef %18) #13
  %19 = load ptr, ptr %7, align 8, !tbaa !7
  call void @free(ptr noundef %19) #13
  %20 = load ptr, ptr %8, align 8, !tbaa !12
  call void @free(ptr noundef %20) #13
  call void @llvm.lifetime.end.p0(i64 8, ptr %8) #13
  call void @llvm.lifetime.end.p0(i64 8, ptr %7) #13
  ret i32 2
}