; Function Attrs: mustprogress nounwind sspstrong willreturn uwtable
define internal noundef i32 @i_free_name_entry(i64 noundef %0, i64 noundef %1, i64 %2) #12 {
  %4 = inttoptr i64 %0 to ptr
  %5 = inttoptr i64 %1 to ptr
  %6 = load ptr, ptr %5, align 8, !tbaa !47
  tail call void @free(ptr noundef %6) #25
  %7 = getelementptr inbounds nuw i8, ptr %5, i64 32
  %8 = load ptr, ptr %7, align 8, !tbaa !44
  tail call void @free(ptr noundef %8) #25
  tail call void @free(ptr noundef %4) #25
  tail call void @free(ptr noundef %5) #25
  ret i32 2
}